target datalayout = "e-m:e-p270:32:32-p271:32:32-p272:64:64-i64:64-i128:128-f80:128-n8:16:32:64-S128"
target triple = "x86_64-pc-linux-gnu"

%union.SourceSpan = type { i64 }
%union.anon.2 = type { ptr }
%union.anon.3 = type { i16 }
%union.anon.4 = type { %struct.FuncDecl }
%struct.FuncDecl = type { i32, [4 x i8], %struct.Signature_, i32, i32, %union.anon.11 }
%struct.Signature_ = type <{ %struct.CalleeAttributes, i16, i8, i32, i32, [4 x i8], ptr }>
%struct.CalleeAttributes = type { i8 }
%union.anon.11 = type { %struct.anon.12 }
%struct.anon.12 = type { i16, %union.anon.13 }
%union.anon.13 = type { ptr }
%struct.GlobalContext = type { %struct.HTable, ptr, ptr, ptr, ptr, ptr, ptr, ptr, ptr, i8, i32, i32, i32, ptr, ptr, %struct.HTable, %struct.HTable, %struct.Module_, %struct.DeclTable, %struct.DeclTable, %struct.Path_, ptr, ptr, ptr, ptr, ptr, ptr, ptr, [65536 x ptr], ptr, ptr, ptr }
%struct.HTable = type { i32, ptr }
%struct.Module_ = type { ptr, ptr, ptr, i16, i32, ptr, %struct.HTable, ptr, ptr, ptr, ptr, ptr, ptr, ptr, ptr, ptr }
%struct.DeclTable = type { i32, i32, i32, ptr }
%struct.Path_ = type { %union.SourceSpan, ptr, i32 }
%struct.Decl_ = type { ptr, ptr, %union.SourceSpan, i64, %union.anon.2, i32, %union.anon.3, i64, ptr, ptr, ptr, %union.anon.4 }

@.str.3 = private unnamed_addr constant [6 x i8] c"$anon\00", align 1
@.str.43 = private unnamed_addr constant [2 x i8] c"_\00", align 1
@.str.44 = private unnamed_addr constant [2 x i8] c".\00", align 1
@global_context = external global %struct.GlobalContext, align 8

; Function Attrs: nounwind uwtable
define dso_local void @decl_set_external_name(ptr noundef %0) #0 {
  %2 = alloca ptr, align 8
  %3 = alloca ptr, align 8
  %4 = alloca ptr, align 8
  %5 = alloca ptr, align 8
  %6 = alloca ptr, align 8
  %7 = alloca ptr, align 8
  %8 = alloca i8, align 1
  store ptr %0, ptr %4, align 8
  %9 = load ptr, ptr %4, align 8
  %10 = getelementptr inbounds %struct.Decl_, ptr %9, i32 0, i32 3
  %11 = load i64, ptr %10, align 8
  %12 = and i64 %11, 127
  %13 = trunc i64 %12 to i32
  %14 = icmp eq i32 %13, 13
  br i1 %14, label %15, label %16

15:                                               ; preds = %1
  br label %128

16:                                               ; preds = %1
  %17 = load ptr, ptr %4, align 8
  %18 = getelementptr inbounds %struct.Decl_, ptr %17, i32 0, i32 3
  %19 = load i64, ptr %18, align 8
  %20 = lshr i64 %19, 19
  %21 = and i64 %20, 1
  %22 = trunc i64 %21 to i1
  br i1 %22, label %23, label %24

23:                                               ; preds = %16
  br label %128

24:                                               ; preds = %16
  %25 = load ptr, ptr %4, align 8
  %26 = getelementptr inbounds %struct.Decl_, ptr %25, i32 0, i32 0
  %27 = load ptr, ptr %26, align 8
  store ptr %27, ptr %5, align 8
  %28 = load ptr, ptr %5, align 8
  %29 = icmp ne ptr %28, null
  br i1 %29, label %31, label %30

30:                                               ; preds = %24
  store ptr @.str.3, ptr %5, align 8
  br label %31

31:                                               ; preds = %30, %24
  %32 = load ptr, ptr %4, align 8
  %33 = getelementptr inbounds %struct.Decl_, ptr %32, i32 0, i32 3
  %34 = load i64, ptr %33, align 8
  %35 = lshr i64 %34, 14
  %36 = and i64 %35, 1
  %37 = trunc i64 %36 to i1
  br i1 %37, label %58, label %38

38:                                               ; preds = %31
  %39 = load ptr, ptr %4, align 8
  store ptr %39, ptr %2, align 8
  %40 = load ptr, ptr %2, align 8
  %41 = getelementptr inbounds %struct.Decl_, ptr %40, i32 0, i32 8
  %42 = load ptr, ptr %41, align 8
  %43 = icmp ne ptr %42, null
  br i1 %43, label %44, label %49

44:                                               ; preds = %38
  %45 = load ptr, ptr %2, align 8
  %46 = getelementptr inbounds %struct.Decl_, ptr %45, i32 0, i32 8
  %47 = load ptr, ptr %46, align 8
  %48 = load ptr, ptr %47, align 8
  br label %51

49:                                               ; preds = %38
  %50 = load ptr, ptr getelementptr inbounds (%struct.GlobalContext, ptr @global_context, i32 0, i32 1), align 8
  br label %51

51:                                               ; preds = %49, %44
  %52 = phi ptr [ %48, %44 ], [ %50, %49 ]
  %53 = getelementptr inbounds %struct.Module_, ptr %52, i32 0, i32 3
  %54 = load i16, ptr %53, align 8
  %55 = lshr i16 %54, 4
  %56 = and i16 %55, 1
  %57 = trunc i16 %56 to i1
  br i1 %57, label %58, label %62

58:                                               ; preds = %51, %31
  %59 = load ptr, ptr %5, align 8
  %60 = load ptr, ptr %4, align 8
  %61 = getelementptr inbounds %struct.Decl_, ptr %60, i32 0, i32 1
  store ptr %59, ptr %61, align 8
  br label %128

62:                                               ; preds = %51
  call void @scratch_buffer_clear()
  %63 = load ptr, ptr %4, align 8
  store ptr %63, ptr %3, align 8
  %64 = load ptr, ptr %3, align 8
  %65 = getelementptr inbounds %struct.Decl_, ptr %64, i32 0, i32 8
  %66 = load ptr, ptr %65, align 8
  %67 = icmp ne ptr %66, null
  br i1 %67, label %68, label %73

68:                                               ; preds = %62
  %69 = load ptr, ptr %3, align 8
  %70 = getelementptr inbounds %struct.Decl_, ptr %69, i32 0, i32 8
  %71 = load ptr, ptr %70, align 8
  %72 = load ptr, ptr %71, align 8
  br label %75

73:                                               ; preds = %62
  %74 = load ptr, ptr getelementptr inbounds (%struct.GlobalContext, ptr @global_context, i32 0, i32 1), align 8
  br label %75

75:                                               ; preds = %73, %68
  %76 = phi ptr [ %72, %68 ], [ %74, %73 ]
  store ptr %76, ptr %6, align 8
  %77 = load ptr, ptr %6, align 8
  %78 = getelementptr inbounds %struct.Module_, ptr %77, i32 0, i32 1
  %79 = load ptr, ptr %78, align 8
  %80 = icmp ne ptr %79, null
  br i1 %80, label %81, label %85

81:                                               ; preds = %75
  %82 = load ptr, ptr %6, align 8
  %83 = getelementptr inbounds %struct.Module_, ptr %82, i32 0, i32 1
  %84 = load ptr, ptr %83, align 8
  br label %91

85:                                               ; preds = %75
  %86 = load ptr, ptr %6, align 8
  %87 = getelementptr inbounds %struct.Module_, ptr %86, i32 0, i32 0
  %88 = load ptr, ptr %87, align 8
  %89 = getelementptr inbounds %struct.Path_, ptr %88, i32 0, i32 1
  %90 = load ptr, ptr %89, align 8
  br label %91

91:                                               ; preds = %85, %81
  %92 = phi ptr [ %84, %81 ], [ %90, %85 ]
  store ptr %92, ptr %7, align 8
  br label %93

93:                                               ; preds = %115, %91
  %94 = load ptr, ptr %7, align 8
  %95 = getelementptr inbounds i8, ptr %94, i32 1
  store ptr %95, ptr %7, align 8
  %96 = load i8, ptr %94, align 1
  store i8 %96, ptr %8, align 1
  %97 = sext i8 %96 to i32
  %98 = icmp ne i32 %97, 0
  br i1 %98, label %99, label %116

99:                                               ; preds = %93
  %100 = load i8, ptr %8, align 1
  %101 = sext i8 %100 to i32
  switch i32 %101, label %113 [
    i32 58, label %102
  ]

102:                                              ; preds = %99
  %103 = load ptr, ptr %4, align 8
  %104 = getelementptr inbounds %struct.Decl_, ptr %103, i32 0, i32 3
  %105 = load i64, ptr %104, align 8
  %106 = lshr i64 %105, 28
  %107 = and i64 %106, 1
  %108 = trunc i64 %107 to i1
  %109 = select i1 %108, i32 95, i32 46
  %110 = trunc i32 %109 to i8
  call void @scratch_buffer_append_char(i8 noundef signext %110)
  %111 = load ptr, ptr %7, align 8
  %112 = getelementptr inbounds i8, ptr %111, i32 1
  store ptr %112, ptr %7, align 8
  br label %115

113:                                              ; preds = %99
  %114 = load i8, ptr %8, align 1
  call void @scratch_buffer_append_char(i8 noundef signext %114)
  br label %115

115:                                              ; preds = %113, %102
  br label %93, !llvm.loop !7

116:                                              ; preds = %93
  %117 = load ptr, ptr %4, align 8
  %118 = getelementptr inbounds %struct.Decl_, ptr %117, i32 0, i32 3
  %119 = load i64, ptr %118, align 8
  %120 = lshr i64 %119, 28
  %121 = and i64 %120, 1
  %122 = trunc i64 %121 to i1
  %123 = select i1 %122, ptr @.str.43, ptr @.str.44
  call void @scratch_buffer_append(ptr noundef %123)
  %124 = load ptr, ptr %5, align 8
  call void @scratch_buffer_append(ptr noundef %124)
  %125 = call ptr @scratch_buffer_copy()
  %126 = load ptr, ptr %4, align 8
  %127 = getelementptr inbounds %struct.Decl_, ptr %126, i32 0, i32 1
  store ptr %125, ptr %127, align 8
  br label %128

128:                                              ; preds = %116, %58, %23, %15
  ret void
}