; Function Attrs: nounwind uwtable
define dso_local void @decl_set_external_name(ptr nocapture noundef %0) local_unnamed_addr #0 {
  %2 = getelementptr inbounds i8, ptr %0, i64 24
  %3 = load i64, ptr %2, align 8
  %4 = and i64 %3, 127
  %5 = icmp ne i64 %4, 13
  %6 = and i64 %3, 524288
  %.not = icmp eq i64 %6, 0
  %or.cond = and i1 %5, %.not
  br i1 %or.cond, label %7, label %41

7:                                                ; preds = %1
  %8 = load ptr, ptr %0, align 8
  %.not27 = icmp eq ptr %8, null
  %spec.store.select = select i1 %.not27, ptr @.str.3, ptr %8
  %9 = and i64 %3, 16384
  %.not28 = icmp eq i64 %9, 0
  br i1 %.not28, label %10, label %.sink.split

10:                                               ; preds = %7
  %11 = getelementptr inbounds i8, ptr %0, i64 56
  %12 = load ptr, ptr %11, align 8
  %.not29 = icmp eq ptr %12, null
  %. = select i1 %.not29, ptr getelementptr inbounds (%struct.GlobalContext, ptr @global_context, i64 0, i32 1), ptr %12
  %13 = load ptr, ptr %., align 8
  %14 = getelementptr inbounds i8, ptr %13, i64 24
  %15 = load i16, ptr %14, align 8
  %16 = and i16 %15, 16
  %.not30 = icmp eq i16 %16, 0
  br i1 %.not30, label %17, label %.sink.split

17:                                               ; preds = %10
  tail call void @scratch_buffer_clear() #9
  %18 = load ptr, ptr %11, align 8
  %.not31 = icmp eq ptr %18, null
  %.37 = select i1 %.not31, ptr getelementptr inbounds (%struct.GlobalContext, ptr @global_context, i64 0, i32 1), ptr %18
  %19 = load ptr, ptr %.37, align 8
  %20 = getelementptr inbounds i8, ptr %19, i64 8
  %21 = load ptr, ptr %20, align 8
  %.not33 = icmp eq ptr %21, null
  br i1 %.not33, label %22, label %.preheader

22:                                               ; preds = %17
  %23 = load ptr, ptr %19, align 8
  %24 = getelementptr inbounds i8, ptr %23, i64 8
  %25 = load ptr, ptr %24, align 8
  br label %.preheader

.preheader:                                       ; preds = %17, %22
  %.0.ph = phi ptr [ %21, %17 ], [ %25, %22 ]
  br label %26

26:                                               ; preds = %.backedge, %.preheader
  %.0 = phi ptr [ %.0.ph, %.preheader ], [ %.0.be, %.backedge ]
  %27 = load i8, ptr %.0, align 1
  switch i8 %27, label %33 [
    i8 0, label %35
    i8 58, label %28
  ]

28:                                               ; preds = %26
  %29 = load i64, ptr %2, align 8
  %30 = and i64 %29, 268435456
  %.not36 = icmp eq i64 %30, 0
  %31 = select i1 %.not36, i8 46, i8 95
  tail call void @scratch_buffer_append_char(i8 noundef signext %31) #9
  %32 = getelementptr inbounds i8, ptr %.0, i64 2
  br label %.backedge

33:                                               ; preds = %26
  %34 = getelementptr inbounds i8, ptr %.0, i64 1
  tail call void @scratch_buffer_append_char(i8 noundef signext %27) #9
  br label %.backedge

.backedge:                                        ; preds = %33, %28
  %.0.be = phi ptr [ %32, %28 ], [ %34, %33 ]
  br label %26, !llvm.loop !7

35:                                               ; preds = %26
  %36 = load i64, ptr %2, align 8
  %37 = and i64 %36, 268435456
  %.not35 = icmp eq i64 %37, 0
  %38 = select i1 %.not35, ptr @.str.44, ptr @.str.43
  tail call void @scratch_buffer_append(ptr noundef nonnull %38) #9
  tail call void @scratch_buffer_append(ptr noundef nonnull %spec.store.select) #9
  %39 = tail call ptr @scratch_buffer_copy() #9
  br label %.sink.split

.sink.split:                                      ; preds = %7, %10, %35
  %.sink = phi ptr [ %39, %35 ], [ %spec.store.select, %10 ], [ %spec.store.select, %7 ]
  %40 = getelementptr inbounds i8, ptr %0, i64 8
  store ptr %.sink, ptr %40, align 8
  br label %41

41:                                               ; preds = %.sink.split, %1
  ret void
}